target datalayout = "e-m:e-p270:32:32-p271:32:32-p272:64:64-i64:64-i128:128-f80:128-n8:16:32:64-S128"
target triple = "x86_64-pc-linux-gnu"

; Function Attrs: nounwind uwtable
define i32 @_testfunc_cbk_reg_int(i32 noundef %0, i32 noundef %1, i32 noundef %2, i32 noundef %3, i32 noundef %4, ptr noundef %5) #0 {
  %7 = alloca i32, align 4
  %8 = alloca i32, align 4
  %9 = alloca i32, align 4
  %10 = alloca i32, align 4
  %11 = alloca i32, align 4
  %12 = alloca ptr, align 8
  store i32 %0, ptr %7, align 4, !tbaa !3
  store i32 %1, ptr %8, align 4, !tbaa !3
  store i32 %2, ptr %9, align 4, !tbaa !3
  store i32 %3, ptr %10, align 4, !tbaa !3
  store i32 %4, ptr %11, align 4, !tbaa !3
  store ptr %5, ptr %12, align 8, !tbaa !7
  %13 = load ptr, ptr %12, align 8, !tbaa !7
  %14 = load i32, ptr %7, align 4, !tbaa !3
  %15 = load i32, ptr %7, align 4, !tbaa !3
  %16 = mul i32 %14, %15
  %17 = load i32, ptr %8, align 4, !tbaa !3
  %18 = load i32, ptr %8, align 4, !tbaa !3
  %19 = mul i32 %17, %18
  %20 = load i32, ptr %9, align 4, !tbaa !3
  %21 = load i32, ptr %9, align 4, !tbaa !3
  %22 = mul i32 %20, %21
  %23 = load i32, ptr %10, align 4, !tbaa !3
  %24 = load i32, ptr %10, align 4, !tbaa !3
  %25 = mul i32 %23, %24
  %26 = load i32, ptr %11, align 4, !tbaa !3
  %27 = load i32, ptr %11, align 4, !tbaa !3
  %28 = mul i32 %26, %27
  %29 = call i32 %13(i32 noundef %16, i32 noundef %19, i32 noundef %22, i32 noundef %25, i32 noundef %28)
  ret i32 %29
}