; Function Attrs: nounwind uwtable
define i32 @_testfunc_cbk_reg_int(i32 noundef %0, i32 noundef %1, i32 noundef %2, i32 noundef %3, i32 noundef %4, ptr noundef readonly captures(none) %5) local_unnamed_addr #0 {
  %7 = mul i32 %0, %0
  %8 = mul i32 %1, %1
  %9 = mul i32 %2, %2
  %10 = mul i32 %3, %3
  %11 = mul i32 %4, %4
  %12 = tail call i32 %5(i32 noundef %7, i32 noundef %8, i32 noundef %9, i32 noundef %10, i32 noundef %11) #34
  ret i32 %12
}